target datalayout = "e-m:e-p270:32:32-p271:32:32-p272:64:64-i64:64-i128:128-f80:128-n8:16:32:64-S128"
target triple = "x86_64-pc-linux-gnu"

%struct.expert_field = type { i32, i32 }
%struct._packet_info = type { ptr, ptr, i32, i32, %struct.nstime_t, %struct.nstime_t, %struct.nstime_t, i8, ptr, ptr, ptr, ptr, %struct._address, %struct._address, %struct._address, %struct._address, %struct._address, %struct._address, i32, ptr, i8, [3 x i8], %struct.anon, i32, i32, i32, i32, ptr, i8, ptr, ptr, i16, i16, i32, i32, i16, i32, i32, ptr, ptr, ptr, i8, i8, i16, i16, i16, i32, i16, i16, ptr, ptr, ptr, ptr, ptr, i32, i32 }
%struct.nstime_t = type { i64, i32 }
%struct._address = type { i32, i32, ptr, ptr }
%struct.anon = type { i8, [3 x i8] }

@ett_nan = internal global i32 0, align 4
@ei_nan_unknown_beacon_type = internal global %struct.expert_field zeroinitializer, align 4
@proto_nan = internal global i32 0, align 4
@.str.712 = private unnamed_addr constant [4 x i8] c"NAN\00", align 1
@.str.742 = private unnamed_addr constant [4 x i8] c"100\00", align 1
@.str.743 = private unnamed_addr constant [11 x i8] c"Discovery \00", align 1
@.str.744 = private unnamed_addr constant [4 x i8] c"512\00", align 1
@.str.745 = private unnamed_addr constant [6 x i8] c"Sync \00", align 1
@.str.746 = private unnamed_addr constant [11 x i8] c"[Unknown] \00", align 1

; Function Attrs: null_pointer_is_valid sspstrong uwtable
define internal i32 @dissect_nan_beacon(ptr noundef %0, ptr noundef %1, ptr noundef %2, ptr noundef %3) #0 {
  %5 = alloca ptr, align 8
  %6 = alloca ptr, align 8
  %7 = alloca ptr, align 8
  %8 = alloca ptr, align 8
  %9 = alloca i32, align 4
  %10 = alloca ptr, align 8
  %11 = alloca ptr, align 8
  %12 = alloca ptr, align 8
  %13 = alloca i32, align 4
  store ptr %0, ptr %5, align 8
  store ptr %1, ptr %6, align 8
  store ptr %2, ptr %7, align 8
  store ptr %3, ptr %8, align 8
  call void @llvm.lifetime.start.p0(i64 4, ptr %9) #5
  store i32 0, ptr %9, align 4
  %14 = load ptr, ptr %6, align 8
  %15 = getelementptr inbounds nuw %struct._packet_info, ptr %14, i32 0, i32 1
  %16 = load ptr, ptr %15, align 8
  call void @col_set_str(ptr noundef %16, i32 noundef 35, ptr noundef @.str.712)
  call void @llvm.lifetime.start.p0(i64 8, ptr %10) #5
  %17 = load ptr, ptr %6, align 8
  %18 = getelementptr inbounds nuw %struct._packet_info, ptr %17, i32 0, i32 1
  %19 = load ptr, ptr %18, align 8
  %20 = call ptr @col_get_text(ptr noundef %19, i32 noundef 25)
  store ptr %20, ptr %10, align 8
  %21 = load ptr, ptr %10, align 8
  %22 = icmp ne ptr %21, null
  br i1 %22, label %23, label %31

23:                                               ; preds = %4
  %24 = load ptr, ptr %10, align 8
  %25 = call i32 @g_str_has_suffix(ptr noundef %24, ptr noundef @.str.742)
  %26 = icmp ne i32 %25, 0
  br i1 %26, label %27, label %31

27:                                               ; preds = %23
  %28 = load ptr, ptr %6, align 8
  %29 = getelementptr inbounds nuw %struct._packet_info, ptr %28, i32 0, i32 1
  %30 = load ptr, ptr %29, align 8
  call void (ptr, i32, ptr, ...) @col_prepend_fstr(ptr noundef %30, i32 noundef 25, ptr noundef @.str.743)
  br label %50

31:                                               ; preds = %23, %4
  %32 = load ptr, ptr %10, align 8
  %33 = icmp ne ptr %32, null
  br i1 %33, label %34, label %42

34:                                               ; preds = %31
  %35 = load ptr, ptr %10, align 8
  %36 = call i32 @g_str_has_suffix(ptr noundef %35, ptr noundef @.str.744)
  %37 = icmp ne i32 %36, 0
  br i1 %37, label %38, label %42

38:                                               ; preds = %34
  %39 = load ptr, ptr %6, align 8
  %40 = getelementptr inbounds nuw %struct._packet_info, ptr %39, i32 0, i32 1
  %41 = load ptr, ptr %40, align 8
  call void (ptr, i32, ptr, ...) @col_prepend_fstr(ptr noundef %41, i32 noundef 25, ptr noundef @.str.745)
  br label %49

42:                                               ; preds = %34, %31
  %43 = load ptr, ptr %6, align 8
  %44 = load ptr, ptr %7, align 8
  %45 = call ptr @expert_add_info(ptr noundef %43, ptr noundef %44, ptr noundef @ei_nan_unknown_beacon_type)
  %46 = load ptr, ptr %6, align 8
  %47 = getelementptr inbounds nuw %struct._packet_info, ptr %46, i32 0, i32 1
  %48 = load ptr, ptr %47, align 8
  call void (ptr, i32, ptr, ...) @col_prepend_fstr(ptr noundef %48, i32 noundef 25, ptr noundef @.str.746)
  br label %49

49:                                               ; preds = %42, %38
  br label %50

50:                                               ; preds = %49, %27
  call void @llvm.lifetime.start.p0(i64 8, ptr %11) #5
  %51 = load ptr, ptr %7, align 8
  %52 = load i32, ptr @proto_nan, align 4
  %53 = load ptr, ptr %5, align 8
  %54 = call ptr @proto_tree_add_item(ptr noundef %51, i32 noundef %52, ptr noundef %53, i32 noundef 0, i32 noundef -1, i32 noundef 0)
  store ptr %54, ptr %11, align 8
  call void @llvm.lifetime.start.p0(i64 8, ptr %12) #5
  %55 = load ptr, ptr %11, align 8
  %56 = load i32, ptr @ett_nan, align 4
  %57 = call ptr @proto_item_add_subtree(ptr noundef %55, i32 noundef %56)
  store ptr %57, ptr %12, align 8
  call void @llvm.lifetime.start.p0(i64 4, ptr %13) #5
  %58 = load ptr, ptr %5, align 8
  %59 = call i32 @tvb_reported_length(ptr noundef %58)
  store i32 %59, ptr %13, align 4
  br label %60

60:                                               ; preds = %64, %50
  %61 = load i32, ptr %9, align 4
  %62 = load i32, ptr %13, align 4
  %63 = icmp ult i32 %61, %62
  br i1 %63, label %64, label %69

64:                                               ; preds = %60
  %65 = load ptr, ptr %12, align 8
  %66 = load ptr, ptr %5, align 8
  %67 = load i32, ptr %13, align 4
  %68 = load ptr, ptr %6, align 8
  call void @find_attribute_field(ptr noundef %65, ptr noundef %66, i32 noundef %67, ptr noundef %9, ptr noundef %68)
  br label %60, !llvm.loop !9

69:                                               ; preds = %60
  %70 = load ptr, ptr %5, align 8
  %71 = call i32 @tvb_captured_length(ptr noundef %70)
  call void @llvm.lifetime.end.p0(i64 4, ptr %13) #5
  call void @llvm.lifetime.end.p0(i64 8, ptr %12) #5
  call void @llvm.lifetime.end.p0(i64 8, ptr %11) #5
  call void @llvm.lifetime.end.p0(i64 8, ptr %10) #5
  call void @llvm.lifetime.end.p0(i64 4, ptr %9) #5
  ret i32 %71
}