; Function Attrs: null_pointer_is_valid sspstrong uwtable
define internal i32 @dissect_nan_beacon(ptr noundef %0, ptr noundef %1, ptr noundef %2, ptr readnone captures(none) %3) #0 {
  %5 = alloca i32, align 4
  call void @llvm.lifetime.start.p0(i64 4, ptr nonnull %5) #5
  store i32 0, ptr %5, align 4
  %6 = getelementptr inbounds nuw i8, ptr %1, i64 8
  %7 = load ptr, ptr %6, align 8
  tail call void @col_set_str(ptr noundef %7, i32 noundef 35, ptr noundef nonnull @.str.712)
  %8 = load ptr, ptr %6, align 8
  %9 = tail call ptr @col_get_text(ptr noundef %8, i32 noundef 25)
  %.not = icmp eq ptr %9, null
  br i1 %.not, label %.critedge, label %10

10:                                               ; preds = %4
  %11 = tail call i32 @g_str_has_suffix(ptr noundef nonnull %9, ptr noundef nonnull @.str.742)
  %.not21 = icmp eq i32 %11, 0
  br i1 %.not21, label %12, label %15

12:                                               ; preds = %10
  %13 = tail call i32 @g_str_has_suffix(ptr noundef nonnull %9, ptr noundef nonnull @.str.744)
  %.not22 = icmp eq i32 %13, 0
  br i1 %.not22, label %.critedge, label %15

.critedge:                                        ; preds = %4, %12
  %14 = tail call ptr @expert_add_info(ptr noundef %1, ptr noundef %2, ptr noundef nonnull @ei_nan_unknown_beacon_type)
  br label %15

15:                                               ; preds = %12, %10, %.critedge
  %.str.745.sink = phi ptr [ @.str.746, %.critedge ], [ @.str.743, %10 ], [ @.str.745, %12 ]
  %16 = load ptr, ptr %6, align 8
  tail call void (ptr, i32, ptr, ...) @col_prepend_fstr(ptr noundef %16, i32 noundef 25, ptr noundef nonnull %.str.745.sink)
  %17 = load i32, ptr @proto_nan, align 4
  %18 = tail call ptr @proto_tree_add_item(ptr noundef %2, i32 noundef %17, ptr noundef %0, i32 noundef 0, i32 noundef -1, i32 noundef 0)
  %19 = load i32, ptr @ett_nan, align 4
  %20 = tail call ptr @proto_item_add_subtree(ptr noundef %18, i32 noundef %19)
  %21 = tail call i32 @tvb_reported_length(ptr noundef %0)
  %.not23 = icmp eq i32 %21, 0
  br i1 %.not23, label %._crit_edge, label %.lr.ph

.lr.ph:                                           ; preds = %15, %.lr.ph
  call fastcc void @find_attribute_field(ptr noundef %20, ptr noundef %0, i32 noundef %21, ptr noundef nonnull %5, ptr noundef %1)
  %22 = load i32, ptr %5, align 4
  %23 = icmp ult i32 %22, %21
  br i1 %23, label %.lr.ph, label %._crit_edge, !llvm.loop !9

._crit_edge:                                      ; preds = %.lr.ph, %15
  %24 = tail call i32 @tvb_captured_length(ptr noundef %0)
  call void @llvm.lifetime.end.p0(i64 4, ptr nonnull %5) #5
  ret i32 %24
}